target datalayout = "e-m:e-p270:32:32-p271:32:32-p272:64:64-i64:64-i128:128-f80:128-n8:16:32:64-S128"
target triple = "x86_64-pc-linux-gnu"

@rb_eEOFError = external global i64, align 8
@.str.193 = private unnamed_addr constant [20 x i8] c"end of file reached\00", align 1

; Function Attrs: inlinehint nounwind sspstrong willreturn memory(none) uwtable
define internal zeroext i1 @RB_NIL_P(i64 noundef %0) #5 {
  %2 = alloca i64, align 8
  store i64 %0, ptr %2, align 8, !tbaa !6
  %3 = load i64, ptr %2, align 8, !tbaa !6
  %4 = icmp eq i64 %3, 4
  ret i1 %4
}

; Function Attrs: nounwind sspstrong uwtable
define internal i64 @rb_gzreader_readchar(i64 noundef %0) #0 {
  %2 = alloca i64, align 8
  %3 = alloca i64, align 8
  store i64 %0, ptr %2, align 8, !tbaa !6
  call void @llvm.lifetime.start.p0(i64 8, ptr %3) #23
  %4 = load i64, ptr %2, align 8, !tbaa !6
  %5 = call i64 @rb_gzreader_getc(i64 noundef %4)
  store i64 %5, ptr %3, align 8, !tbaa !6
  %6 = load i64, ptr %3, align 8, !tbaa !6
  %7 = call zeroext i1 @RB_NIL_P(i64 noundef %6) #24
  br i1 %7, label %8, label %10

8:                                                ; preds = %1
  %9 = load i64, ptr @rb_eEOFError, align 8, !tbaa !6
  call void (i64, ptr, ...) @rb_raise(i64 noundef %9, ptr noundef @.str.193) #26
  unreachable

10:                                               ; preds = %1
  %11 = load i64, ptr %3, align 8, !tbaa !6
  call void @llvm.lifetime.end.p0(i64 8, ptr %3) #23
  ret i64 %11
}