; Function Attrs: nounwind sspstrong uwtable
define internal range(i64 5, 4) i64 @rb_gzreader_readchar(i64 noundef %0) #0 {
  %2 = tail call i64 @rb_gzreader_getc(i64 noundef %0)
  %3 = icmp eq i64 %2, 4
  br i1 %3, label %4, label %6

4:                                                ; preds = %1
  %5 = load i64, ptr @rb_eEOFError, align 8, !tbaa !6
  tail call void (i64, ptr, ...) @rb_raise(i64 noundef %5, ptr noundef nonnull @.str.193) #19
  unreachable

6:                                                ; preds = %1
  ret i64 %2
}